; Function Attrs: mustprogress uwtable
define internal noundef i64 @_ZN12_GLOBAL__N_14File4readEPvm(ptr noundef nonnull align 8 dereferenceable(113) %0, ptr nocapture noundef writeonly %1, i64 noundef %2) unnamed_addr #0 align 2 personality ptr @__gxx_personality_v0 {
  %4 = getelementptr inbounds i8, ptr %0, i64 32
  %5 = tail call noundef i32 @pthread_mutex_lock(ptr noundef nonnull %4) #23
  %.not.i.i.i = icmp eq i32 %5, 0
  br i1 %.not.i.i.i, label %_ZNSt11unique_lockISt5mutexEC2ERS0_.exit.preheader, label %7

_ZNSt11unique_lockISt5mutexEC2ERS0_.exit.preheader: ; preds = %3
  %6 = getelementptr inbounds i8, ptr %0, i64 16
  %.not = icmp eq i64 %2, 0
  br i1 %.not, label %_ZNSt11unique_lockISt5mutexED2Ev.exit, label %.lr.ph

7:                                                ; preds = %3
  tail call void @_ZSt20__throw_system_errori(i32 noundef %5) #25
  unreachable

.lr.ph:                                           ; preds = %_ZNSt11unique_lockISt5mutexEC2ERS0_.exit.preheader, %_ZNSt11unique_lockISt5mutexEC2ERS0_.exit
  %.01114 = phi i64 [ %13, %_ZNSt11unique_lockISt5mutexEC2ERS0_.exit ], [ 0, %_ZNSt11unique_lockISt5mutexEC2ERS0_.exit.preheader ]
  %8 = load ptr, ptr %6, align 8
  %9 = tail call i32 @fgetc(ptr noundef %8)
  %10 = icmp eq i32 %9, -1
  br i1 %10, label %_ZNSt11unique_lockISt5mutexED2Ev.exit, label %_ZNSt11unique_lockISt5mutexEC2ERS0_.exit

_ZNSt11unique_lockISt5mutexEC2ERS0_.exit:         ; preds = %.lr.ph
  %11 = trunc i32 %9 to i8
  %12 = getelementptr inbounds i8, ptr %1, i64 %.01114
  store i8 %11, ptr %12, align 1
  %13 = add nuw i64 %.01114, 1
  %exitcond.not = icmp eq i64 %13, %2
  br i1 %exitcond.not, label %_ZNSt11unique_lockISt5mutexED2Ev.exit, label %.lr.ph, !llvm.loop !30

_ZNSt11unique_lockISt5mutexED2Ev.exit:            ; preds = %_ZNSt11unique_lockISt5mutexEC2ERS0_.exit, %.lr.ph, %_ZNSt11unique_lockISt5mutexEC2ERS0_.exit.preheader
  %.0 = phi i64 [ 0, %_ZNSt11unique_lockISt5mutexEC2ERS0_.exit.preheader ], [ %.01114, %.lr.ph ], [ %2, %_ZNSt11unique_lockISt5mutexEC2ERS0_.exit ]
  %14 = tail call noundef i32 @pthread_mutex_unlock(ptr noundef nonnull %4) #23
  ret i64 %.0
}